; ModuleID = '56/647.c'
source_filename = "56/647.c"
target datalayout = "e-m:e-p270:32:32-p271:32:32-p272:64:64-i64:64-f80:128-n8:16:32:64-S128"
target triple = "x86_64-pc-linux-gnu"

@.str = private unnamed_addr constant [3 x i8] c"%d\00", align 1
@.str.1 = private unnamed_addr constant [4 x i8] c"%ld\00", align 1

; Function Attrs: noinline nounwind uwtable
define dso_local void @main() #0 {
  %1 = alloca i32, align 4
  %2 = alloca i32, align 4
  %3 = alloca i32, align 4
  %4 = alloca i32, align 4
  %5 = alloca i64, align 8
  %6 = call i32 (i8*, ...) @__isoc99_scanf(i8* getelementptr inbounds ([3 x i8], [3 x i8]* @.str, i64 0, i64 0), i32* %1)
  %7 = load i32, i32* %1, align 4
  %8 = sitofp i32 %7 to double
  %9 = call double @log10(double %8) #4
  %10 = call double @llvm.floor.f64(double %9)
  %11 = fptosi double %10 to i32
  store i32 %11, i32* %2, align 4
  store i32 0, i32* %4, align 4
  store i32 1, i32* %3, align 4
  br label %12

12:                                               ; preds = %44, %0
  %13 = load i32, i32* %3, align 4
  %14 = load i32, i32* %2, align 4
  %15 = add nsw i32 %14, 1
  %16 = icmp sle i32 %13, %15
  br i1 %16, label %17, label %47

17:                                               ; preds = %12
  %18 = load i32, i32* %3, align 4
  %19 = sitofp i32 %18 to double
  %20 = call double @pow(double 1.000000e+01, double %19) #4
  %21 = fptosi double %20 to i64
  store i64 %21, i64* %5, align 8
  %22 = load i32, i32* %4, align 4
  %23 = sitofp i32 %22 to double
  %24 = load i32, i32* %1, align 4
  %25 = sext i32 %24 to i64
  %26 = load i64, i64* %5, align 8
  %27 = srem i64 %25, %26
  %28 = sitofp i64 %27 to double
  %29 = load i32, i32* %3, align 4
  %30 = sub nsw i32 %29, 1
  %31 = sitofp i32 %30 to double
  %32 = call double @pow(double 1.000000e+01, double %31) #4
  %33 = fdiv double %28, %32
  %34 = call double @llvm.floor.f64(double %33)
  %35 = load i32, i32* %2, align 4
  %36 = load i32, i32* %3, align 4
  %37 = sub nsw i32 %35, %36
  %38 = add nsw i32 %37, 1
  %39 = sitofp i32 %38 to double
  %40 = call double @pow(double 1.000000e+01, double %39) #4
  %41 = fmul double %34, %40
  %42 = fadd double %23, %41
  %43 = fptosi double %42 to i32
  store i32 %43, i32* %4, align 4
  br label %44

44:                                               ; preds = %17
  %45 = load i32, i32* %3, align 4
  %46 = add nsw i32 %45, 1
  store i32 %46, i32* %3, align 4
  br label %12

47:                                               ; preds = %12
  %48 = load i32, i32* %4, align 4
  %49 = call i32 (i8*, ...) @printf(i8* getelementptr inbounds ([4 x i8], [4 x i8]* @.str.1, i64 0, i64 0), i32 %48)
  ret void
}

declare dso_local i32 @__isoc99_scanf(i8*, ...) #1

; Function Attrs: nounwind
declare dso_local double @log10(double) #2

; Function Attrs: nounwind readnone speculatable willreturn
declare double @llvm.floor.f64(double) #3

; Function Attrs: nounwind
declare dso_local double @pow(double, double) #2

declare dso_local i32 @printf(i8*, ...) #1


!llvm.module.flags = !{!0}
!llvm.ident = !{!1}

!0 = !{i32 1, !"wchar_size", i32 4}
!1 = !{!"clang version 10.0.0-4ubuntu1 "}
