; ModuleID = 'source-C-CXX/55/647.c'
source_filename = "source-C-CXX/55/647.c"
target datalayout = "e-m:e-p270:32:32-p271:32:32-p272:64:64-i64:64-f80:128-n8:16:32:64-S128"
target triple = "x86_64-pc-linux-gnu"

@.str = private unnamed_addr constant [3 x i8] c"%d\00", align 1
@.str.1 = private unnamed_addr constant [4 x i8] c"%ld\00", align 1

; Function Attrs: nofree nounwind sspstrong uwtable
define dso_local void @main() local_unnamed_addr #0 {
  %1 = alloca i32, align 4
  %2 = bitcast i32* %1 to i8*
  call void @llvm.lifetime.start.p0i8(i64 4, i8* nonnull %2) #5
  %3 = call i32 (i8*, ...) @__isoc99_scanf(i8* getelementptr inbounds ([3 x i8], [3 x i8]* @.str, i64 0, i64 0), i32* nonnull %1)
  %4 = load i32, i32* %1, align 4, !tbaa !5
  %5 = sitofp i32 %4 to double
  %6 = call double @log10(double %5) #5
  %7 = call double @llvm.floor.f64(double %6)
  %8 = fptosi double %7 to i32
  %9 = add i32 %8, 1
  %10 = icmp slt i32 %8, 0
  br i1 %10, label %37, label %11

11:                                               ; preds = %0
  %12 = add i32 %8, 1
  br label %13

13:                                               ; preds = %11, %13
  %14 = phi i32 [ %35, %13 ], [ 1, %11 ]
  %15 = phi i32 [ %34, %13 ], [ 0, %11 ]
  %16 = sitofp i32 %14 to double
  %17 = call double @pow(double 1.000000e+01, double %16) #5
  %18 = fptosi double %17 to i64
  %19 = sitofp i32 %15 to double
  %20 = load i32, i32* %1, align 4, !tbaa !5
  %21 = sext i32 %20 to i64
  %22 = srem i64 %21, %18
  %23 = sitofp i64 %22 to double
  %24 = add nsw i32 %14, -1
  %25 = sitofp i32 %24 to double
  %26 = call double @pow(double 1.000000e+01, double %25) #5
  %27 = fdiv double %23, %26
  %28 = call double @llvm.floor.f64(double %27)
  %29 = sub i32 %9, %14
  %30 = sitofp i32 %29 to double
  %31 = call double @pow(double 1.000000e+01, double %30) #5
  %32 = fmul double %31, %28
  %33 = fadd double %32, %19
  %34 = fptosi double %33 to i32
  %35 = add nuw i32 %14, 1
  %36 = icmp eq i32 %14, %12
  br i1 %36, label %37, label %13, !llvm.loop !9

37:                                               ; preds = %13, %0
  %38 = phi i32 [ 0, %0 ], [ %34, %13 ]
  %39 = call i32 (i8*, ...) @printf(i8* nonnull dereferenceable(1) getelementptr inbounds ([4 x i8], [4 x i8]* @.str.1, i64 0, i64 0), i32 %38)
  call void @llvm.lifetime.end.p0i8(i64 4, i8* nonnull %2) #5
  ret void
}

; Function Attrs: argmemonly mustprogress nofree nosync nounwind willreturn
declare void @llvm.lifetime.start.p0i8(i64 immarg, i8* nocapture) #1

; Function Attrs: nofree nounwind
declare noundef i32 @__isoc99_scanf(i8* nocapture noundef readonly, ...) local_unnamed_addr #2

; Function Attrs: mustprogress nofree nounwind willreturn
declare double @log10(double) local_unnamed_addr #3

; Function Attrs: mustprogress nofree nosync nounwind readnone speculatable willreturn
declare double @llvm.floor.f64(double) #4

; Function Attrs: mustprogress nofree nounwind willreturn
declare double @pow(double, double) local_unnamed_addr #3

; Function Attrs: nofree nounwind
declare noundef i32 @printf(i8* nocapture noundef readonly, ...) local_unnamed_addr #2

; Function Attrs: argmemonly mustprogress nofree nosync nounwind willreturn
declare void @llvm.lifetime.end.p0i8(i64 immarg, i8* nocapture) #1


!llvm.module.flags = !{!0, !1, !2, !3}
!llvm.ident = !{!4}

!0 = !{i32 1, !"wchar_size", i32 4}
!1 = !{i32 7, !"PIC Level", i32 2}
!2 = !{i32 7, !"PIE Level", i32 2}
!3 = !{i32 7, !"uwtable", i32 1}
!4 = !{!"clang version 13.0.0"}
!5 = !{!6, !6, i64 0}
!6 = !{!"int", !7, i64 0}
!7 = !{!"omnipotent char", !8, i64 0}
!8 = !{!"Simple C/C++ TBAA"}
!9 = distinct !{!9, !10}
!10 = !{!"llvm.loop.mustprogress"}
